(lp1
(dp2
S'partProbe'
p3
S'1.75\t1.75\t3.75'
p4
sS'tInt'
p5
S'quasiCG'
p6
sS'ppd'
p7
S'2\t2\t2'
p8
sS'probe 4 on rank 0'
p9
S'0.074739121387472'
p10
sS'Npart'
p11
S'296'
p12
sS'inner connectivity table size'
p13
S'2368'
p14
sS'shape'
p15
S'MPM'
p16
sS'dtOveride'
p17
S'0.125'
p18
sS'Jrows'
p19
S'8'
sS'loadFactor'
p20
S'1'
sS'maxLoadIter'
p21
S'1'
sS'cartRank_0'
p22
S'_____________________________'
p23
sS'Icols'
p24
S'8'
sS'rhoStart'
p25
S'487080351.19212'
p26
sS'ignore'
p27
S'2.2250738585072e-308'
p28
sS'max part velocity'
p29
S'0'
sS'NewtTol'
p30
S'1e-06'
p31
sS'Nnode'
p32
S'512'
p33
sS'ending Kiter'
p34
S'185'
p35
sS'minMass'
p36
S'6.4492855500475e-11'
p37
sS'Klayers'
p38
S'8'
sS'total CG iterations'
p39
S'14917'
p40
sS'elapsedTime'
p41
S'1'
sS'tol start'
p42
S'3.4923534814145e-11'
p43
sS'np'
p44
S'1\t1\t1'
p45
sS'theta'
p46
S'1'
sS'linIter'
p47
S'600'
p48
sS'pres'
p49
S'6000000000'
p50
sS'probe 1 on rank 0'
p51
S'0.1360190300022'
p52
sS'(Newton) residual not satisfied'
p53
S'0.00010268231014996'
p54
sS'regionHi'
p55
S'5\t5\t5'
p56
sS'NewtLim'
p57
S'8'
sS'outer connectivity table size'
p58
S'0'
sS'estimated total wall time'
p59
S'6.07 sec '
p60
sS'Invoking Armijo tol prev'
p61
S'1.6200448800094'
p62
sS'estimated wall time remaining'
p63
S'   0 sec '
p64
sS'incCount'
p65
S'8'
sS'cell sizes'
p66
S'1\t1\t1'
p67
sS'probe 2 on rank 0'
p68
S'0.6135956124736'
p69
sS'probe 3 on rank 0'
p70
S'0.24293659608949'
p71
sS'linTol'
p72
S'1e-08'
p73
sS'CFL'
p74
S'0.5'
p75
sS'current Kiter'
p76
S'0'
sS'dens'
p77
S'7850'
p78
sS'timeStep'
p79
S'0.125'
p80
sS'Ncell'
p81
S'5'
sS'testName'
p82
S'pressBox-CG'
p83
sS'tol prev'
p84
S'3.6121826952184e-06'
p85
sS'pois'
p86
S'0.31'
p87
sS'mainDir'
p88
S'/data/code/gimp/545=543-mass2/0main'
p89
sS'Ymod'
p90
S'210000000000'
p91
sS'runDir'
p92
S'/data/code/gimp/545=543-mass2/pressBox'
p93
sS'regionLo'
p94
S'0\t0\t0'
p95
sS'Nstep'
p96
S'8'
sS'Newton step'
p97
S'5'
sS'wallTime'
p98
S'6.08'
p99
sa(dp100
S'partProbe'
p101
S'1.75\t1.75\t3.75'
p102
sS'tInt'
p103
S'quasi'
p104
sS'ppd'
p105
S'2\t2\t2'
p106
sS'probe 4 on rank 0'
p107
S'0.073439406386324'
p108
sS'Npart'
p109
S'296'
p110
sS'inner connectivity table size'
p111
S'2368'
p112
sS'shape'
p113
S'MPM'
p114
sS'dtOveride'
p115
S'0.25'
p116
sS'Jrows'
p117
S'8'
sS'loadFactor'
p118
S'1'
sS'maxLoadIter'
p119
S'1'
sS'Icols'
p120
S'8'
sS'total GMRES iterations'
p121
S'1710'
p122
sS'rhoStart'
p123
S'2376194127.9514'
p124
sS'ignore'
p125
S'2.2250738585072e-308'
p126
sS'max part velocity'
p127
S'0'
sS'NewtTol'
p128
S'1e-06'
p129
sS'Nnode'
p130
S'512'
p131
sS'ending Kiter'
p132
S'176'
p133
sS'minMass'
p134
S'6.4492855500475e-11'
p135
sS'Klayers'
p136
S'8'
sS'cartRank_0'
p137
S'_____________________________'
p138
sS'elapsedTime'
p139
S'1'
sS'countBasis'
p140
S'183649'
p141
sS'np'
p142
S'1\t1\t1'
p143
sS'tol start'
p144
S'3.1687893809027e-12'
p145
sS'linIter'
p146
S'300'
p147
sS'pres'
p148
S'6000000000'
p149
sS'probe 1 on rank 0'
p150
S'0.13412941227251'
p151
sS'regionHi'
p152
S'5\t5\t5'
p153
sS'NewtLim'
p154
S'8'
sS'outer connectivity table size'
p155
S'0'
sS'estimated total wall time'
p156
S'5.48 sec '
p157
sS'pois'
p158
S'0.31'
p159
sS'estimated wall time remaining'
p160
S'   0 sec '
p161
sS'incCount'
p162
S'4'
sS'cell sizes'
p163
S'1\t1\t1'
p164
sS'probe 2 on rank 0'
p165
S'0.60163111445629'
p166
sS'theta'
p167
S'1'
sS'probe 3 on rank 0'
p168
S'0.24797146169666'
p169
sS'linTol'
p170
S'1e-08'
p171
sS'CFL'
p172
S'0.5'
p173
sS'current Kiter'
p174
S'100'
p175
sS'dens'
p176
S'7850'
p177
sS'timeStep'
p178
S'0.25'
p179
sS'Ncell'
p180
S'5'
sS'testName'
p181
S'pressBox-GM'
p182
sS'tol prev'
p183
S'9.7192603409225e-07'
p184
sS'mainDir'
p185
S'/data/code/gimp/545=543-mass2/0main'
p186
sS'Ymod'
p187
S'210000000000'
p188
sS'runDir'
p189
S'/data/code/gimp/545=543-mass2/pressBox'
p190
sS'regionLo'
p191
S'0\t0\t0'
p192
sS'Nstep'
p193
S'4'
sS'Newton step'
p194
S'3'
sS'wallTime'
p195
S'5.49'
p196
sa(dp197
S'partProbe'
p198
S'1.75\t1.75\t3.75'
p199
sS'tInt'
p200
S'quasiBCG'
p201
sS'ppd'
p202
S'2\t2\t2'
p203
sS'probe 4 on rank 0'
p204
S'0.071643341542552'
p205
sS'Npart'
p206
S'296'
p207
sS'inner connectivity table size'
p208
S'2368'
p209
sS'shape'
p210
S'MPM'
p211
sS'dtOveride'
p212
S'0.0625'
p213
sS'Jrows'
p214
S'8'
sS'loadFactor'
p215
S'1'
sS'maxLoadIter'
p216
S'1'
sS'Icols'
p217
S'8'
sS'rhoStart'
p218
S'113999391.6465'
p219
sS'ignore'
p220
S'2.2250738585072e-308'
p221
sS'max part velocity'
p222
S'0'
sS'NewtTol'
p223
S'1e-100'
p224
sS'Nnode'
p225
S'512'
p226
sS'ending Kiter'
p227
S'8'
sS'minMass'
p228
S'6.4492855500475e-11'
p229
sS'Klayers'
p230
S'8'
sS'cartRank_0'
p231
S'_____________________________'
p232
sS'elapsedTime'
p233
S'1'
sS'tol start'
p234
S'0.044670543322477'
p235
sS'np'
p236
S'1\t1\t1'
p237
sS'theta'
p238
S'1'
sS'linIter'
p239
S'8'
sS'pres'
p240
S'6000000000'
p241
sS'probe 1 on rank 0'
p242
S'0.13231111198474'
p243
sS'(Newton) residual not satisfied'
p244
S'0.044670543322477'
p245
sS'regionHi'
p246
S'5\t5\t5'
p247
sS'NewtLim'
p248
S'8'
sS'outer connectivity table size'
p249
S'0'
sS'estimated total wall time'
p250
S'   1 sec '
p251
sS'Invoking Armijo tol prev'
p252
S'1.0833370463968'
p253
sS'estimated wall time remaining'
p254
S'   0 sec '
p255
sS'incCount'
p256
S'16'
p257
sS'cell sizes'
p258
S'1\t1\t1'
p259
sS'probe 2 on rank 0'
p260
S'0.56343215480527'
p261
sS'probe 3 on rank 0'
p262
S'0.23540359062109'
p263
sS'linTol'
p264
S'1e-100'
p265
sS'CFL'
p266
S'0.5'
p267
sS'current Kiter'
p268
S'0'
sS'dens'
p269
S'7850'
p270
sS'timeStep'
p271
S'0.0625'
p272
sS'Ncell'
p273
S'5'
sS'testName'
p274
S'pressBox-BCG-6'
p275
sS'tol prev'
p276
S'0.68258735377542'
p277
sS'pois'
p278
S'0.31'
p279
sS'mainDir'
p280
S'/data/code/gimp/545=543-mass2/0main'
p281
sS'Ymod'
p282
S'210000000000'
p283
sS'runDir'
p284
S'/data/code/gimp/545=543-mass2/pressBox'
p285
sS'regionLo'
p286
S'0\t0\t0'
p287
sS'Nstep'
p288
S'16'
p289
sS'Newton step'
p290
S'8'
sS'wallTime'
p291
S'1.01'
p292
sa(dp293
S'partProbe'
p294
S'1.75\t1.75\t3.75'
p295
sS'tInt'
p296
S'quasiBCG'
p297
sS'ppd'
p298
S'2\t2\t2'
p299
sS'probe 4 on rank 0'
p300
S'0.3720260630533'
p301
sS'Npart'
p302
S'296'
p303
sS'inner connectivity table size'
p304
S'2368'
p305
sS'shape'
p306
S'MPM'
p307
sS'dtOveride'
p308
S'0.0625'
p309
sS'Jrows'
p310
S'8'
sS'loadFactor'
p311
S'0.6875'
p312
sS'maxLoadIter'
p313
S'1'
sS'Icols'
p314
S'8'
sS'rhoStart'
p315
S'313579826505.01'
p316
sS'ignore'
p317
S'2.2250738585072e-308'
p318
sS'max part velocity'
p319
S'0'
sS'NewtTol'
p320
S'1e-100'
p321
sS'Nnode'
p322
S'512'
p323
sS'ending Kiter'
p324
S'8'
sS'minMass'
p325
S'6.4492855500475e-11'
p326
sS'Klayers'
p327
S'8'
sS'cartRank_0'
p328
S'_____________________________'
p329
sS'elapsedTime'
p330
S'0.6875'
p331
sS'tol start'
p332
S'2.1697127497884'
p333
sS'np'
p334
S'1\t1\t1'
p335
sS'theta'
p336
S'1'
sS'linIter'
p337
S'8'
sS'pres'
p338
S'12000000000'
p339
sS'probe 1 on rank 0'
p340
S'0.31837478950892'
p341
sS'(Newton) residual not satisfied'
p342
S'2.1697127497884'
p343
sS'regionHi'
p344
S'5\t5\t5'
p345
sS'NewtLim'
p346
S'8'
sS'outer connectivity table size'
p347
S'0'
sS'estimated total wall time'
p348
S'1.0327272727273 sec '
p349
sS'Invoking Armijo tol prev'
p350
S'2.1448796885211'
p351
sS'estimated wall time remaining'
p352
S'0.32272727272727 sec '
p353
sS'incCount'
p354
S'11'
p355
sS'cell sizes'
p356
S'1\t1\t1'
p357
sS'probe 2 on rank 0'
p358
S'0.3781850365391'
p359
sS'probe 3 on rank 0'
p360
S'0.85902254315115'
p361
sS'linTol'
p362
S'1e-100'
p363
sS'CFL'
p364
S'0.5'
p365
sS'current Kiter'
p366
S'0'
sS'dens'
p367
S'7850'
p368
sS'timeStep'
p369
S'0.0625'
p370
sS'crash encountered with world rank'
p371
S'0'
sS'Ncell'
p372
S'5'
sS'testName'
p373
S'pressBox-BCG-12'
p374
sS'tol prev'
p375
S'0.66188478916261'
p376
sS'pois'
p377
S'0.31'
p378
sS'mainDir'
p379
S'/data/code/gimp/545=543-mass2/0main'
p380
sS'Ymod'
p381
S'210000000000'
p382
sS'runDir'
p383
S'/data/code/gimp/545=543-mass2/pressBox'
p384
sS'regionLo'
p385
S'0\t0\t0'
p386
sS'Nstep'
p387
S'16'
p388
sS'Newton step'
p389
S'8'
sS'wallTime'
p390
S'0.72'
p391
sa.