(lp1
(dp2
S'load'
p3
S'1e-05'
p4
sS'finalTime'
p5
S'0.0021959506451049'
p6
sS'tInt'
p7
S'linGM'
p8
sS'Nnode'
p9
S'896'
p10
sS'Npart'
p11
S'300'
p12
sS'partProbe'
p13
S'0.049\t0.002\t0.03'
p14
sS'ppd'
p15
S'2\t2\t2'
p16
sS'inner connectivity table size'
p17
S'2400'
p18
sS'shape'
p19
S'MPM'
p20
sS'dtOveride'
p21
S'3.6571074139554e-05'
p22
sS'Jrows'
p23
S'8'
sS'L1norm'
p24
S'8.5734440579776e-06'
p25
sS'natFreq'
p26
S'12232.490947603'
p27
sS'Icols'
p28
S'28'
p29
sS'frameCount'
p30
S'0'
sS'regionHi'
p31
S'0.1\t0.008\t0.12'
p32
sS'max part velocity'
p33
S'1.2410344772601e-06'
p34
sS'decay'
p35
S'24.458039708117'
p36
sS'minMass'
p37
S'9.498535291641e-23'
p38
sS'Klayers'
p39
S'4'
sS'cartRank_0'
p40
S'_____________________________'
p41
sS'elapsedTime'
p42
S'0.0021959506451049'
p43
sS'L2norm'
p44
S'8.5833641004258e-06'
p45
sS'countBasis'
p46
S'661422'
p47
sS'total GMRES iterations'
p48
S'8876'
p49
sS'Nper'
p50
S'4.3220338983051'
p51
sS'np'
p52
S'1\t1\t1'
p53
sS'theta'
p54
S'0.5'
p55
sS'Nwide'
p56
S'1'
sS'Nthick'
p57
S'1'
sS'linIter'
p58
S'256'
p59
sS'actFreq'
p60
S'12232.466496479'
p61
sS'outer connectivity table size'
p62
S'0'
sS'estimated total wall time'
p63
S'31.07 sec '
p64
sS'pois'
p65
S'0.31'
p66
sS'estimated wall time remaining'
p67
S'   0 sec '
p68
sS'goodness-of-fit'
p69
S'0.99999464844618'
p70
sS'incCount'
p71
S'61'
p72
sS'current Kiter'
p73
S'0'
sS'cell sizes'
p74
S'0.004\t0.0032\t0.12'
p75
sS'Linfnorm'
p76
S'9.1749652601756e-06'
p77
sS'phase'
p78
S'0.002087001888079'
p79
sS'amp'
p80
S'-7.8896766955815e-06'
p81
sS'linTol'
p82
S'1e-08'
p83
sS'EulerFreq'
p84
S'11445.039206479'
p85
sS'CFL'
p86
S'64'
p87
sS'Qfactor'
p88
S'250.07096017478'
p89
sS'dens'
p90
S'0.008912'
p91
sS'timeStep'
p92
S'3.6571074139554e-05'
p93
sS'dampRatio'
p94
S'0.0019994324796871'
p95
sS'testName'
p96
S'fixed-modes-linGM'
p97
sS'beamH'
p98
S'0.004'
p99
sS'mainDir'
p100
S'/data/code/gimp/545=543-mass2/0main'
p101
sS'mode'
p102
S'1'
sS'beamL'
p103
S'0.1'
p104
sS'Ymod'
p105
S'158100'
p106
sS'beamB'
p107
S'0.12'
p108
sS'runDir'
p109
S'/data/code/gimp/545=543-mass2/fixed-modes'
p110
sS'regionLo'
p111
S'0\t-0.008\t0'
p112
sS'Nstep'
p113
S'60.04610738873'
p114
sS'wallTime'
p115
S'31.07'
p116
sa(dp117
S'load'
p118
S'1e-05'
p119
sS'finalTime'
p120
S'0.0021959506451049'
p121
sS'tInt'
p122
S'NewtCG'
p123
sS'Nnode'
p124
S'2756'
p125
sS'Npart'
p126
S'1000'
p127
sS'partProbe'
p128
S'0.0495\t0.002\t0.03'
p129
sS'inner connectivity table size'
p130
S'8000'
p131
sS'shape'
p132
S'MPM'
p133
sS'dtOveride'
p134
S'3.6571074139554e-05'
p135
sS'Jrows'
p136
S'13'
p137
sS'L1norm'
p138
S'3.8283804297888e-06'
p139
sS'maxLoadIter'
p140
S'1'
sS'cartRank_0'
p141
S'_____________________________'
p142
sS'natFreq'
p143
S'11457.982996864'
p144
sS'Icols'
p145
S'53'
p146
sS'frameCount'
p147
S'0'
sS'rhoStart'
p148
S'5.3266396077163e-15'
p149
sS'ignore'
p150
S'2.2250738585072e-308'
p151
sS'max part velocity'
p152
S'7.852259162838e-06'
p153
sS'decay'
p154
S'3.6196834748714'
p155
sS'NewtTol'
p156
S'1e-06'
p157
sS'ppd'
p158
S'2\t2\t2'
p159
sS'ending Kiter'
p160
S'62'
p161
sS'minMass'
p162
S'9.498535291641e-23'
p163
sS'Klayers'
p164
S'4'
sS'total CG iterations'
p165
S'19519'
p166
sS'elapsedTime'
p167
S'0.0021959506451049'
p168
sS'L2norm'
p169
S'4.711783145051e-06'
p170
sS'tol start'
p171
S'9.7638549329742e-09'
p172
sS'Nper'
p173
S'4.1803278688525'
p174
sS'np'
p175
S'1\t1\t1'
p176
sS'theta'
p177
S'0.5'
p178
sS'Nwide'
p179
S'1'
sS'Nthick'
p180
S'2'
sS'linIter'
p181
S'400'
p182
sS'actFreq'
p183
S'11457.982425118'
p184
sS'NewtLim'
p185
S'8'
sS'outer connectivity table size'
p186
S'0'
sS'estimated total wall time'
p187
S'29.83 sec '
p188
sS'pois'
p189
S'0.31'
p190
sS'estimated wall time remaining'
p191
S'   0 sec '
p192
sS'goodness-of-fit'
p193
S'0.99999838025393'
p194
sS'incCount'
p195
S'61'
p196
sS'current Kiter'
p197
S'0'
sS'cell sizes'
p198
S'0.002\t0.0016\t0.12'
p199
sS'Linfnorm'
p200
S'7.9427090941825e-06'
p201
sS'phase'
p202
S'-8.5501503409137e-05'
p203
sS'amp'
p204
S'-7.921101176475e-06'
p205
sS'regionHi'
p206
S'0.1\t0.008\t0.12'
p207
sS'linTol'
p208
S'1e-08'
p209
sS'EulerFreq'
p210
S'11445.039206479'
p211
sS'CFL'
p212
S'128'
p213
sS'Qfactor'
p214
S'1582.7327273791'
p215
sS'dens'
p216
S'0.008912'
p217
sS'timeStep'
p218
S'3.6571074139554e-05'
p219
sS'dampRatio'
p220
S'0.00031590930758599'
p221
sS'testName'
p222
S'fixed-modes-dynCG'
p223
sS'tol prev'
p224
S'9.7638549329742e-09'
p225
sS'beamH'
p226
S'0.004'
p227
sS'mainDir'
p228
S'/data/code/gimp/545=543-mass2/0main'
p229
sS'mode'
p230
S'1'
sS'beamL'
p231
S'0.1'
p232
sS'Ymod'
p233
S'158100'
p234
sS'beamB'
p235
S'0.12'
p236
sS'runDir'
p237
S'/data/code/gimp/545=543-mass2/fixed-modes'
p238
sS'regionLo'
p239
S'0\t-0.008\t0'
p240
sS'Nstep'
p241
S'60.04610738873'
p242
sS'Newton step'
p243
S'1'
sS'wallTime'
p244
S'29.83'
p245
sa(dp246
S'load'
p247
S'1e-05'
p248
sS'finalTime'
p249
S'0.0021959506451049'
p250
sS'tInt'
p251
S'dynGM'
p252
sS'Nnode'
p253
S'896'
p254
sS'Npart'
p255
S'300'
p256
sS'partProbe'
p257
S'0.049\t0.002\t0.03'
p258
sS'inner connectivity table size'
p259
S'2400'
p260
sS'shape'
p261
S'MPM'
p262
sS'dtOveride'
p263
S'7.3142148279109e-05'
p264
sS'Jrows'
p265
S'8'
sS'L1norm'
p266
S'4.636838817977e-06'
p267
sS'maxLoadIter'
p268
S'1'
sS'natFreq'
p269
S'11687.985546947'
p270
sS'Icols'
p271
S'28'
p272
sS'frameCount'
p273
S'0'
sS'rhoStart'
p274
S'8.9991594151971e-07'
p275
sS'ignore'
p276
S'2.2250738585072e-308'
p277
sS'max part velocity'
p278
S'6.3169182155035e-06'
p279
sS'decay'
p280
S'33.369363764366'
p281
sS'NewtTol'
p282
S'1e-06'
p283
sS'ppd'
p284
S'2\t2\t2'
p285
sS'ending Kiter'
p286
S'21'
p287
sS'minMass'
p288
S'9.498535291641e-23'
p289
sS'Klayers'
p290
S'4'
sS'cartRank_0'
p291
S'_____________________________'
p292
sS'elapsedTime'
p293
S'0.0021959506451049'
p294
sS'L2norm'
p295
S'5.1407410310323e-06'
p296
sS'countBasis'
p297
S'218661'
p298
sS'total GMRES iterations'
p299
S'3624'
p300
sS'Nper'
p301
S'4.1129032258065'
p302
sS'np'
p303
S'1\t1\t1'
p304
sS'tol start'
p305
S'4.8564194452826e-09'
p306
sS'Nwide'
p307
S'1'
sS'Nthick'
p308
S'1'
sS'linIter'
p309
S'256'
p310
sS'actFreq'
p311
S'11687.937911847'
p312
sS'NewtLim'
p313
S'8'
sS'outer connectivity table size'
p314
S'0'
sS'estimated total wall time'
p315
S'12.18 sec '
p316
sS'pois'
p317
S'0.31'
p318
sS'estimated wall time remaining'
p319
S'   0 sec '
p320
sS'goodness-of-fit'
p321
S'0.99999699326417'
p322
sS'incCount'
p323
S'31'
p324
sS'current Kiter'
p325
S'0'
sS'cell sizes'
p326
S'0.004\t0.0032\t0.12'
p327
sS'Linfnorm'
p328
S'7.9408636267456e-06'
p329
sS'theta'
p330
S'0.5'
p331
sS'phase'
p332
S'0.0022542869395535'
p333
sS'amp'
p334
S'-7.9121182505077e-06'
p335
sS'regionHi'
p336
S'0.1\t0.008\t0.12'
p337
sS'linTol'
p338
S'1e-08'
p339
sS'EulerFreq'
p340
S'11445.039206479'
p341
sS'CFL'
p342
S'128'
p343
sS'Qfactor'
p344
S'175.13048240116'
p345
sS'dens'
p346
S'0.008912'
p347
sS'timeStep'
p348
S'7.3142148279109e-05'
p349
sS'dampRatio'
p350
S'0.002855014119442'
p351
sS'testName'
p352
S'fixed-modes-dynGM'
p353
sS'tol prev'
p354
S'4.8564194452826e-09'
p355
sS'beamH'
p356
S'0.004'
p357
sS'mainDir'
p358
S'/data/code/gimp/545=543-mass2/0main'
p359
sS'mode'
p360
S'1'
sS'beamL'
p361
S'0.1'
p362
sS'Ymod'
p363
S'158100'
p364
sS'beamB'
p365
S'0.12'
p366
sS'runDir'
p367
S'/data/code/gimp/545=543-mass2/fixed-modes'
p368
sS'regionLo'
p369
S'0\t-0.008\t0'
p370
sS'Nstep'
p371
S'30.023053694365'
p372
sS'Newton step'
p373
S'1'
sS'wallTime'
p374
S'12.18'
p375
sa(dp376
S'load'
p377
S'1e-05'
p378
sS'finalTime'
p379
S'0.0021959506451049'
p380
sS'tInt'
p381
S'linCG'
p382
sS'Nnode'
p383
S'896'
p384
sS'Npart'
p385
S'300'
p386
sS'partProbe'
p387
S'0.049\t0.002\t0.03'
p388
sS'ppd'
p389
S'2\t2\t2'
p390
sS'inner connectivity table size'
p391
S'2400'
p392
sS'shape'
p393
S'MPM'
p394
sS'dtOveride'
p395
S'3.6571074139554e-05'
p396
sS'Jrows'
p397
S'8'
sS'L1norm'
p398
S'8.5734486257962e-06'
p399
sS'cartRank_0'
p400
S'_____________________________'
p401
sS'natFreq'
p402
S'12232.723269276'
p403
sS'Icols'
p404
S'28'
p405
sS'frameCount'
p406
S'0'
sS'regionHi'
p407
S'0.1\t0.008\t0.12'
p408
sS'max part velocity'
p409
S'1.1978333245977e-06'
p410
sS'decay'
p411
S'24.376661106828'
p412
sS'minMass'
p413
S'9.498535291641e-23'
p414
sS'Klayers'
p415
S'4'
sS'total CG iterations'
p416
S'10240'
p417
sS'elapsedTime'
p418
S'0.0021959506451049'
p419
sS'L2norm'
p420
S'8.5831871355995e-06'
p421
sS'Nper'
p422
S'4.3220338983051'
p423
sS'np'
p424
S'1\t1\t1'
p425
sS'theta'
p426
S'0.5'
p427
sS'Nwide'
p428
S'1'
sS'Nthick'
p429
S'1'
sS'linIter'
p430
S'400'
p431
sS'actFreq'
p432
S'12232.698981054'
p433
sS'outer connectivity table size'
p434
S'0'
sS'estimated total wall time'
p435
S'2.43 sec '
p436
sS'pois'
p437
S'0.31'
p438
sS'estimated wall time remaining'
p439
S'   0 sec '
p440
sS'goodness-of-fit'
p441
S'0.99999543160937'
p442
sS'incCount'
p443
S'61'
p444
sS'current Kiter'
p445
S'0'
sS'cell sizes'
p446
S'0.004\t0.0032\t0.12'
p447
sS'Linfnorm'
p448
S'9.1317637520015e-06'
p449
sS'phase'
p450
S'0.0018281888511071'
p451
sS'amp'
p452
S'-7.8894126508795e-06'
p453
sS'linTol'
p454
S'1e-08'
p455
sS'EulerFreq'
p456
S'11445.039206479'
p457
sS'CFL'
p458
S'64'
p459
sS'Qfactor'
p460
S'250.91055775989'
p461
sS'dens'
p462
S'0.008912'
p463
sS'timeStep'
p464
S'3.6571074139554e-05'
p465
sS'dampRatio'
p466
S'0.0019927419733309'
p467
sS'testName'
p468
S'fixed-modes-linCG'
p469
sS'beamH'
p470
S'0.004'
p471
sS'mainDir'
p472
S'/data/code/gimp/545=543-mass2/0main'
p473
sS'mode'
p474
S'1'
sS'beamL'
p475
S'0.1'
p476
sS'Ymod'
p477
S'158100'
p478
sS'beamB'
p479
S'0.12'
p480
sS'runDir'
p481
S'/data/code/gimp/545=543-mass2/fixed-modes'
p482
sS'regionLo'
p483
S'0\t-0.008\t0'
p484
sS'Nstep'
p485
S'60.04610738873'
p486
sS'wallTime'
p487
S'2.44'
p488
sa(dp489
S'load'
p490
S'1e-05'
p491
sS'finalTime'
p492
S'0.0021959506451049'
p493
sS'tInt'
p494
S'momentum'
p495
sS'Nnode'
p496
S'896'
p497
sS'Npart'
p498
S'300'
p499
sS'partProbe'
p500
S'0.049\t0.002\t0.03'
p501
sS'ppd'
p502
S'2\t2\t2'
p503
sS'inner connectivity table size'
p504
S'2400'
p505
sS'shape'
p506
S'MPM'
p507
sS'dtOveride'
p508
S'5.1428073008748e-07'
p509
sS'Jrows'
p510
S'8'
sS'L1norm'
p511
S'1.023679656047e-05'
p512
sS'natFreq'
p513
S'12433.468997835'
p514
sS'Icols'
p515
S'28'
p516
sS'frameCount'
p517
S'42'
p518
sS'regionHi'
p519
S'0.1\t0.008\t0.12'
p520
sS'max part velocity'
p521
S'4.7630469527905e-06'
p522
sS'decay'
p523
S'-0.17736084789428'
p524
sS'minMass'
p525
S'9.498535291641e-23'
p526
sS'Klayers'
p527
S'4'
sS'cartRank_0'
p528
S'_____________________________'
p529
sS'elapsedTime'
p530
S'0.0021959506451049'
p531
sS'L2norm'
p532
S'1.0355277930867e-05'
p533
sS'Nper'
p534
S'4.3467297556301'
p535
sS'np'
p536
S'1\t1\t1'
p537
sS'Nwide'
p538
S'1'
sS'Nthick'
p539
S'1'
sS'actFreq'
p540
S'12433.46899657'
p541
sS'outer connectivity table size'
p542
S'0'
sS'estimated total wall time'
p543
S'2.54 sec '
p544
sS'pois'
p545
S'0.31'
p546
sS'estimated wall time remaining'
p547
S'   0 sec '
p548
sS'goodness-of-fit'
p549
S'0.99788037311755'
p550
sS'incCount'
p551
S'4270'
p552
sS'cell sizes'
p553
S'0.004\t0.0032\t0.12'
p554
sS'Linfnorm'
p555
S'1.2696979996914e-05'
p556
sS'phase'
p557
S'-0.0033722401322404'
p558
sS'amp'
p559
S'-7.899614382537e-06'
p560
sS'EulerFreq'
p561
S'11445.039206479'
p562
sS'CFL'
p563
S'0.9'
p564
sS'Qfactor'
p565
S'-35051.335019685'
p566
sS'dens'
p567
S'0.008912'
p568
sS'timeStep'
p569
S'5.1428073008748e-07'
p570
sS'dampRatio'
p571
S'-1.4264791903624e-05'
p572
sS'testName'
p573
S'fixed-modes-typical'
p574
sS'beamH'
p575
S'0.004'
p576
sS'mainDir'
p577
S'/data/code/gimp/545=543-mass2/0main'
p578
sS'mode'
p579
S'1'
sS'beamL'
p580
S'0.1'
p581
sS'Ymod'
p582
S'158100'
p583
sS'beamB'
p584
S'0.12'
p585
sS'runDir'
p586
S'/data/code/gimp/545=543-mass2/fixed-modes'
p587
sS'regionLo'
p588
S'0\t-0.008\t0'
p589
sS'Nstep'
p590
S'4269.9454143097'
p591
sS'wallTime'
p592
S'2.54'
p593
sa(dp594
S'load'
p595
S'1e-05'
p596
sS'finalTime'
p597
S'0.0021959506451049'
p598
sS'tInt'
p599
S'momentum'
p600
sS'Nnode'
p601
S'896'
p602
sS'Npart'
p603
S'300'
p604
sS'partProbe'
p605
S'0.049\t0.002\t0.03'
p606
sS'ppd'
p607
S'2\t2\t2'
p608
sS'inner connectivity table size'
p609
S'2400'
p610
sS'shape'
p611
S'MPM'
p612
sS'dtOveride'
p613
S'1.1428460668611e-06'
p614
sS'Jrows'
p615
S'8'
sS'L1norm'
p616
S'1.0211883319329e-05'
p617
sS'natFreq'
p618
S'12433.505906194'
p619
sS'Icols'
p620
S'28'
p621
sS'frameCount'
p622
S'19'
p623
sS'regionHi'
p624
S'0.1\t0.008\t0.12'
p625
sS'max part velocity'
p626
S'4.7130576046715e-06'
p627
sS'decay'
p628
S'-0.13438647378534'
p629
sS'minMass'
p630
S'9.498535291641e-23'
p631
sS'Klayers'
p632
S'4'
sS'cartRank_0'
p633
S'_____________________________'
p634
sS'elapsedTime'
p635
S'0.0021959506451049'
p636
sS'L2norm'
p637
S'1.0328804261191e-05'
p638
sS'Nper'
p639
S'4.3519456289979'
p640
sS'np'
p641
S'1\t1\t1'
p642
sS'Nwide'
p643
S'1'
sS'Nthick'
p644
S'1'
sS'actFreq'
p645
S'12433.505905468'
p646
sS'outer connectivity table size'
p647
S'0'
sS'estimated total wall time'
p648
S'1.08 sec '
p649
sS'pois'
p650
S'0.31'
p651
sS'estimated wall time remaining'
p652
S'   0 sec '
p653
sS'goodness-of-fit'
p654
S'0.99743417589869'
p655
sS'incCount'
p656
S'1922'
p657
sS'cell sizes'
p658
S'0.004\t0.0032\t0.12'
p659
sS'Linfnorm'
p660
S'1.264695497592e-05'
p661
sS'phase'
p662
S'-0.0072445063491541'
p663
sS'amp'
p664
S'-7.9000315314858e-06'
p665
sS'EulerFreq'
p666
S'11445.039206479'
p667
sS'CFL'
p668
S'2'
sS'Qfactor'
p669
S'-46260.258030339'
p670
sS'dens'
p671
S'0.008912'
p672
sS'timeStep'
p673
S'1.1428460668611e-06'
p674
sS'dampRatio'
p675
S'-1.0808413556018e-05'
p676
sS'testName'
p677
S'fixed-modes-MPM-mom'
p678
sS'beamH'
p679
S'0.004'
p680
sS'mainDir'
p681
S'/data/code/gimp/545=543-mass2/0main'
p682
sS'mode'
p683
S'1'
sS'beamL'
p684
S'0.1'
p685
sS'Ymod'
p686
S'158100'
p687
sS'beamB'
p688
S'0.12'
p689
sS'runDir'
p690
S'/data/code/gimp/545=543-mass2/fixed-modes'
p691
sS'regionLo'
p692
S'0\t-0.008\t0'
p693
sS'Nstep'
p694
S'1921.4754364394'
p695
sS'wallTime'
p696
S'1.08'
p697
sa(dp698
S'load'
p699
S'1e-05'
p700
sS'finalTime'
p701
S'0.0021959506451049'
p702
sS'tInt'
p703
S'CD'
p704
sS'Nnode'
p705
S'896'
p706
sS'Npart'
p707
S'300'
p708
sS'partProbe'
p709
S'0.049\t0.002\t0.03'
p710
sS'ppd'
p711
S'2\t2\t2'
p712
sS'inner connectivity table size'
p713
S'2400'
p714
sS'shape'
p715
S'MPM'
p716
sS'dtOveride'
p717
S'3.9999612340137e-07'
p718
sS'Jrows'
p719
S'8'
sS'L1norm'
p720
S'1.0229260982909e-05'
p721
sS'natFreq'
p722
S'12433.29796921'
p723
sS'Icols'
p724
S'28'
p725
sS'frameCount'
p726
S'54'
p727
sS'regionHi'
p728
S'0.1\t0.008\t0.12'
p729
sS'max part velocity'
p730
S'4.4796762903485e-06'
p731
sS'decay'
p732
S'0.57746810638518'
p733
sS'minMass'
p734
S'9.498535291641e-23'
p735
sS'Klayers'
p736
S'4'
sS'cartRank_0'
p737
S'_____________________________'
p738
sS'elapsedTime'
p739
S'0.0021959506451049'
p740
sS'L2norm'
p741
S'1.034880808965e-05'
p742
sS'Nper'
p743
S'4.3433718115807'
p744
sS'np'
p745
S'1\t1\t1'
p746
sS'Nwide'
p747
S'1'
sS'Nthick'
p748
S'1'
sS'actFreq'
p749
S'12433.2979558'
p750
sS'outer connectivity table size'
p751
S'0'
sS'estimated total wall time'
p752
S'3.06 sec '
p753
sS'pois'
p754
S'0.31'
p755
sS'estimated wall time remaining'
p756
S'   0 sec '
p757
sS'goodness-of-fit'
p758
S'0.99994645094107'
p759
sS'incCount'
p760
S'5490'
p761
sS'cell sizes'
p762
S'0.004\t0.0032\t0.12'
p763
sS'Linfnorm'
p764
S'1.24136095171e-05'
p765
sS'phase'
p766
S'-0.0026512548558975'
p767
sS'amp'
p768
S'-7.900093384327e-06'
p769
sS'EulerFreq'
p770
S'11445.039206479'
p771
sS'CFL'
p772
S'0.7'
p773
sS'Qfactor'
p774
S'10765.354685162'
p775
sS'dens'
p776
S'0.008912'
p777
sS'timeStep'
p778
S'3.9999612340137e-07'
p779
sS'dampRatio'
p780
S'4.6445288113838e-05'
p781
sS'testName'
p782
S'fixed-modes-MPM-CD'
p783
sS'beamH'
p784
S'0.004'
p785
sS'mainDir'
p786
S'/data/code/gimp/545=543-mass2/0main'
p787
sS'mode'
p788
S'1'
sS'beamL'
p789
S'0.1'
p790
sS'Ymod'
p791
S'158100'
p792
sS'beamB'
p793
S'0.12'
p794
sS'runDir'
p795
S'/data/code/gimp/545=543-mass2/fixed-modes'
p796
sS'regionLo'
p797
S'0\t-0.008\t0'
p798
sS'Nstep'
p799
S'5489.9298183982'
p800
sS'wallTime'
p801
S'3.07'
p802
sa(dp803
S'load'
p804
S'1e-05'
p805
sS'finalTime'
p806
S'0.0021959506451049'
p807
sS'tInt'
p808
S'momentum'
p809
sS'Nnode'
p810
S'896'
p811
sS'Npart'
p812
S'300'
p813
sS'partProbe'
p814
S'0.049\t0.002\t0.03'
p815
sS'ppd'
p816
S'2\t2\t2'
p817
sS'inner connectivity table size'
p818
S'8100'
p819
sS'shape'
p820
S'GIMP'
p821
sS'dtOveride'
p822
S'1.1428460668611e-06'
p823
sS'Jrows'
p824
S'8'
sS'L1norm'
p825
S'8.9997026640984e-06'
p826
sS'natFreq'
p827
S'12279.701718726'
p828
sS'Icols'
p829
S'28'
p830
sS'frameCount'
p831
S'19'
p832
sS'regionHi'
p833
S'0.1\t0.008\t0.12'
p834
sS'max part velocity'
p835
S'2.1599566219269e-06'
p836
sS'decay'
p837
S'0.095451551111753'
p838
sS'minMass'
p839
S'9.498535291641e-23'
p840
sS'Klayers'
p841
S'4'
sS'cartRank_0'
p842
S'_____________________________'
p843
sS'elapsedTime'
p844
S'0.0021959506451049'
p845
sS'L2norm'
p846
S'9.0312673857059e-06'
p847
sS'Nper'
p848
S'4.2901996847084'
p849
sS'np'
p850
S'1\t1\t1'
p851
sS'Nwide'
p852
S'1'
sS'Nthick'
p853
S'1'
sS'actFreq'
p854
S'12279.701718355'
p855
sS'outer connectivity table size'
p856
S'0'
sS'estimated total wall time'
p857
S'2.73 sec '
p858
sS'pois'
p859
S'0.31'
p860
sS'estimated wall time remaining'
p861
S'   0 sec '
p862
sS'goodness-of-fit'
p863
S'0.99229111916231'
p864
sS'incCount'
p865
S'1922'
p866
sS'cell sizes'
p867
S'0.004\t0.0032\t0.12'
p868
sS'Linfnorm'
p869
S'1.0093860068378e-05'
p870
sS'phase'
p871
S'-0.0069595390158628'
p872
sS'amp'
p873
S'-7.9110002938861e-06'
p874
sS'EulerFreq'
p875
S'11445.039206479'
p876
sS'CFL'
p877
S'2'
sS'Qfactor'
p878
S'64324.264905601'
p879
sS'dens'
p880
S'0.008912'
p881
sS'timeStep'
p882
S'1.1428460668611e-06'
p883
sS'dampRatio'
p884
S'7.7731164240084e-06'
p885
sS'testName'
p886
S'fixed-modes-GIMP-mom'
p887
sS'beamH'
p888
S'0.004'
p889
sS'mainDir'
p890
S'/data/code/gimp/545=543-mass2/0main'
p891
sS'mode'
p892
S'1'
sS'beamL'
p893
S'0.1'
p894
sS'Ymod'
p895
S'158100'
p896
sS'beamB'
p897
S'0.12'
p898
sS'runDir'
p899
S'/data/code/gimp/545=543-mass2/fixed-modes'
p900
sS'regionLo'
p901
S'0\t-0.008\t0'
p902
sS'Nstep'
p903
S'1921.4754364394'
p904
sS'wallTime'
p905
S'2.73'
p906
sa(dp907
S'load'
p908
S'1e-05'
p909
sS'finalTime'
p910
S'0.0021959506451049'
p911
sS'tInt'
p912
S'CD'
p913
sS'Nnode'
p914
S'896'
p915
sS'Npart'
p916
S'300'
p917
sS'partProbe'
p918
S'0.049\t0.002\t0.03'
p919
sS'ppd'
p920
S'2\t2\t2'
p921
sS'inner connectivity table size'
p922
S'8100'
p923
sS'shape'
p924
S'GIMP'
p925
sS'dtOveride'
p926
S'4.5713842674443e-07'
p927
sS'Jrows'
p928
S'8'
sS'L1norm'
p929
S'8.9951840835799e-06'
p930
sS'natFreq'
p931
S'12279.610434504'
p932
sS'Icols'
p933
S'28'
p934
sS'frameCount'
p935
S'48'
p936
sS'regionHi'
p937
S'0.1\t0.008\t0.12'
p938
sS'max part velocity'
p939
S'2.009112527487e-06'
p940
sS'decay'
p941
S'0.80992283597303'
p942
sS'minMass'
p943
S'9.498535291641e-23'
p944
sS'Klayers'
p945
S'4'
sS'cartRank_0'
p946
S'_____________________________'
p947
sS'elapsedTime'
p948
S'0.0021959506451049'
p949
sS'L2norm'
p950
S'9.0225322518826e-06'
p951
sS'Nper'
p952
S'4.2901954602774'
p953
sS'np'
p954
S'1\t1\t1'
p955
sS'Nwide'
p956
S'1'
sS'Nthick'
p957
S'1'
sS'actFreq'
p958
S'12279.610407794'
p959
sS'outer connectivity table size'
p960
S'0'
sS'estimated total wall time'
p961
S'6.23 sec '
p962
sS'pois'
p963
S'0.31'
p964
sS'estimated wall time remaining'
p965
S'   0 sec '
p966
sS'goodness-of-fit'
p967
S'0.99994185247187'
p968
sS'incCount'
p969
S'4804'
p970
sS'cell sizes'
p971
S'0.004\t0.0032\t0.12'
p972
sS'Linfnorm'
p973
S'9.9430459104496e-06'
p974
sS'phase'
p975
S'-0.0029729180293524'
p976
sS'amp'
p977
S'-7.910021035334e-06'
p978
sS'EulerFreq'
p979
S'11445.039206479'
p980
sS'CFL'
p981
S'0.8'
p982
sS'Qfactor'
p983
S'7580.7286133325'
p984
sS'dens'
p985
S'0.008912'
p986
sS'timeStep'
p987
S'4.5713842674443e-07'
p988
sS'dampRatio'
p989
S'6.5956720719514e-05'
p990
sS'testName'
p991
S'fixed-modes-GIMP-CD'
p992
sS'beamH'
p993
S'0.004'
p994
sS'mainDir'
p995
S'/data/code/gimp/545=543-mass2/0main'
p996
sS'mode'
p997
S'1'
sS'beamL'
p998
S'0.1'
p999
sS'Ymod'
p1000
S'158100'
p1001
sS'beamB'
p1002
S'0.12'
p1003
sS'runDir'
p1004
S'/data/code/gimp/545=543-mass2/fixed-modes'
p1005
sS'regionLo'
p1006
S'0\t-0.008\t0'
p1007
sS'Nstep'
p1008
S'4803.6885910984'
p1009
sS'wallTime'
p1010
S'6.23'
p1011
sa(dp1012
S'load'
p1013
S'1e-05'
p1014
sS'finalTime'
p1015
S'0.0021959506451049'
p1016
sS'tInt'
p1017
S'momentum'
p1018
sS'Nnode'
p1019
S'896'
p1020
sS'Npart'
p1021
S'300'
p1022
sS'partProbe'
p1023
S'0.049\t0.002\t0.03'
p1024
sS'ppd'
p1025
S'2\t2\t2'
p1026
sS'inner connectivity table size'
p1027
S'8100'
p1028
sS'shape'
p1029
S'spline'
p1030
sS'dtOveride'
p1031
S'1.1428460668611e-06'
p1032
sS'Jrows'
p1033
S'8'
sS'L1norm'
p1034
S'1.125043886527e-05'
p1035
sS'natFreq'
p1036
S'10301.33623155'
p1037
sS'Icols'
p1038
S'28'
p1039
sS'frameCount'
p1040
S'19'
p1041
sS'regionHi'
p1042
S'0.1\t0.008\t0.12'
p1043
sS'max part velocity'
p1044
S'6.6549185718426e-06'
p1045
sS'decay'
p1046
S'0.095364014643403'
p1047
sS'minMass'
p1048
S'9.498535291641e-23'
p1049
sS'Klayers'
p1050
S'4'
sS'cartRank_0'
p1051
S'_____________________________'
p1052
sS'elapsedTime'
p1053
S'0.0021959506451049'
p1054
sS'L2norm'
p1055
S'1.147489945315e-05'
p1056
sS'Nper'
p1057
S'3.7480489073881'
p1058
sS'np'
p1059
S'1\t1\t1'
p1060
sS'Nwide'
p1061
S'1'
sS'Nthick'
p1062
S'1'
sS'actFreq'
p1063
S'10301.336231109'
p1064
sS'outer connectivity table size'
p1065
S'0'
sS'estimated total wall time'
p1066
S' 2.7 sec '
p1067
sS'pois'
p1068
S'0.31'
p1069
sS'estimated wall time remaining'
p1070
S'   0 sec '
p1071
sS'goodness-of-fit'
p1072
S'0.99778107452113'
p1073
sS'incCount'
p1074
S'1922'
p1075
sS'cell sizes'
p1076
S'0.004\t0.0032\t0.12'
p1077
sS'Linfnorm'
p1078
S'1.4588851847423e-05'
p1079
sS'phase'
p1080
S'-0.0059053273070717'
p1081
sS'amp'
p1082
S'-7.874553843594e-06'
p1083
sS'EulerFreq'
p1084
S'11445.039206479'
p1085
sS'CFL'
p1086
S'2'
sS'Qfactor'
p1087
S'54010.604891532'
p1088
sS'dens'
p1089
S'0.008912'
p1090
sS'timeStep'
p1091
S'1.1428460668611e-06'
p1092
sS'dampRatio'
p1093
S'9.2574412192594e-06'
p1094
sS'testName'
p1095
S'fixed-modes-spline-mom'
p1096
sS'beamH'
p1097
S'0.004'
p1098
sS'mainDir'
p1099
S'/data/code/gimp/545=543-mass2/0main'
p1100
sS'mode'
p1101
S'1'
sS'beamL'
p1102
S'0.1'
p1103
sS'Ymod'
p1104
S'158100'
p1105
sS'beamB'
p1106
S'0.12'
p1107
sS'runDir'
p1108
S'/data/code/gimp/545=543-mass2/fixed-modes'
p1109
sS'regionLo'
p1110
S'0\t-0.008\t0'
p1111
sS'Nstep'
p1112
S'1921.4754364394'
p1113
sS'wallTime'
p1114
S'2.7'
p1115
sa(dp1116
S'load'
p1117
S'1e-05'
p1118
sS'finalTime'
p1119
S'0.0021959506451049'
p1120
sS'tInt'
p1121
S'CD'
p1122
sS'Nnode'
p1123
S'896'
p1124
sS'Npart'
p1125
S'300'
p1126
sS'partProbe'
p1127
S'0.049\t0.002\t0.03'
p1128
sS'ppd'
p1129
S'2\t2\t2'
p1130
sS'inner connectivity table size'
p1131
S'8100'
p1132
sS'shape'
p1133
S'spline'
p1134
sS'dtOveride'
p1135
S'4.5713842674443e-07'
p1136
sS'Jrows'
p1137
S'8'
sS'L1norm'
p1138
S'1.1769729068049e-05'
p1139
sS'natFreq'
p1140
S'10083.265232187'
p1141
sS'Icols'
p1142
S'28'
p1143
sS'frameCount'
p1144
S'48'
p1145
sS'regionHi'
p1146
S'0.1\t0.008\t0.12'
p1147
sS'max part velocity'
p1148
S'7.3094267924305e-06'
p1149
sS'decay'
p1150
S'27.472921222427'
p1151
sS'minMass'
p1152
S'9.498535291641e-23'
p1153
sS'Klayers'
p1154
S'4'
sS'cartRank_0'
p1155
S'_____________________________'
p1156
sS'elapsedTime'
p1157
S'0.0021959506451049'
p1158
sS'L2norm'
p1159
S'1.2035181851043e-05'
p1160
sS'Nper'
p1161
S'3.7492194004996'
p1162
sS'np'
p1163
S'1\t1\t1'
p1164
sS'Nwide'
p1165
S'1'
sS'Nthick'
p1166
S'1'
sS'actFreq'
p1167
S'10083.227805679'
p1168
sS'outer connectivity table size'
p1169
S'0'
sS'estimated total wall time'
p1170
S'6.37 sec '
p1171
sS'pois'
p1172
S'0.31'
p1173
sS'estimated wall time remaining'
p1174
S'   0 sec '
p1175
sS'goodness-of-fit'
p1176
S'0.9999977877979'
p1177
sS'incCount'
p1178
S'4804'
p1179
sS'cell sizes'
p1180
S'0.004\t0.0032\t0.12'
p1181
sS'Linfnorm'
p1182
S'1.5243299913717e-05'
p1183
sS'phase'
p1184
S'-0.0019975521389421'
p1185
sS'amp'
p1186
S'-7.8550914232168e-06'
p1187
sS'EulerFreq'
p1188
S'11445.039206479'
p1189
sS'CFL'
p1190
S'0.8'
p1191
sS'Qfactor'
p1192
S'183.51279702931'
p1193
sS'dens'
p1194
S'0.008912'
p1195
sS'timeStep'
p1196
S'4.5713842674443e-07'
p1197
sS'dampRatio'
p1198
S'0.0027246056302011'
p1199
sS'testName'
p1200
S'fixed-modes-spline-CD'
p1201
sS'beamH'
p1202
S'0.004'
p1203
sS'mainDir'
p1204
S'/data/code/gimp/545=543-mass2/0main'
p1205
sS'mode'
p1206
S'1'
sS'beamL'
p1207
S'0.1'
p1208
sS'Ymod'
p1209
S'158100'
p1210
sS'beamB'
p1211
S'0.12'
p1212
sS'runDir'
p1213
S'/data/code/gimp/545=543-mass2/fixed-modes'
p1214
sS'regionLo'
p1215
S'0\t-0.008\t0'
p1216
sS'Nstep'
p1217
S'4803.6885910984'
p1218
sS'wallTime'
p1219
S'6.38'
p1220
sa.