(lp1
(dp2
S'finalTime'
p3
S'1'
sS'dtOveride'
p4
S'0.125'
p5
sS'nonlinear load loop tol start'
p6
S'1.2421033028806e-06'
p7
sS'Nnode'
p8
S'896'
p9
sS'Npart'
p10
S'200'
p11
sS'partProbe'
p12
S'0.049\t0.001\t0.03'
p13
sS'volt'
p14
S'3000'
p15
sS'shape'
p16
S'MPM'
p17
sS'tInt'
p18
S'quasiCG'
p19
sS'Jrows'
p20
S'8'
sS'voltage success'
p21
S'3000'
p22
sS'maxLoadIter'
p23
S'32'
p24
sS'fracDef'
p25
S'0.05'
p26
sS'cartRank_0'
p27
S'_____________________________'
p28
sS'Icols'
p29
S'28'
p30
sS'frameCount'
p31
S'9'
sS'rhoStart'
p32
S'0.016117767276091'
p33
sS'ignore'
p34
S'2.2250738585072e-308'
p35
sS'max part velocity'
p36
S'0'
sS'NewtTol'
p37
S'1e-06'
p38
sS'ppd'
p39
S'2\t2\t2'
p40
sS'ending Kiter'
p41
S'200'
p42
sS'minMass'
p43
S'9.498535291641e-23'
p44
sS'Klayers'
p45
S'4'
sS'total CG iterations'
p46
S'34451'
p47
sS'elapsedTime'
p48
S'1'
sS'tol start'
p49
S'1.0794094137837e-08'
p50
sS'nonlinear load loop'
p51
S'29'
p52
sS'np'
p53
S'1\t1\t1'
p54
sS'theta'
p55
S'1'
sS'voltage attempt'
p56
S'3000'
p57
sS'pmtv'
p58
S'8.854187817e-12'
p59
sS'linIter'
p60
S'200'
p61
sS'regionHi'
p62
S'0.1\t0.012\t0.12'
p63
sS'NewtLim'
p64
S'8'
sS'outer connectivity table size'
p65
S'0'
sS'estimated total wall time'
p66
S'16.03 sec '
p67
sS'pois'
p68
S'0.31'
p69
sS'estimated wall time remaining'
p70
S'   0 sec '
p71
sS'gap'
p72
S'0.00375'
p73
sS'nonlinear load loop tol prev'
p74
S'0.79248616369391'
p75
sS'incCount'
p76
S'8'
sS'cell sizes'
p77
S'0.004\t0.004\t0.12'
p78
sS'linTol'
p79
S'1e-08'
p80
sS'lastFac'
p81
S'0.01'
p82
sS'CFL'
p83
S'0.5'
p84
sS'current Kiter'
p85
S'0'
sS'inner connectivity table size'
p86
S'1600'
p87
sS'dens'
p88
S'0.008912'
p89
sS'finalGap'
p90
S'0.0024310603809892'
p91
sS'testName'
p92
S'pullin2D-geom-3000'
p93
sS'Nthick'
p94
S'1'
sS'timeStep'
p95
S'0.125'
p96
sS'tol prev'
p97
S'0.0086901742494402'
p98
sS'beamH'
p99
S'0.004'
p100
sS'mainDir'
p101
S'/data/code/gimp/545=543-mass2/0main'
p102
sS'beamL'
p103
S'0.1'
p104
sS'Ymod'
p105
S'158100'
p106
sS'beamB'
p107
S'0.12'
p108
sS'runDir'
p109
S'/data/code/gimp/545=543-mass2/pullin2D'
p110
sS'regionLo'
p111
S'0\t-0.008\t0'
p112
sS'Nstep'
p113
S'8'
sS'Newton step'
p114
S'1'
sS'wallTime'
p115
S'16.04'
p116
sa(dp117
S'finalTime'
p118
S'1'
sS'dtOveride'
p119
S'0.125'
p120
sS'nonlinear load loop tol start'
p121
S'0.00084404932862861'
p122
sS'Nnode'
p123
S'896'
p124
sS'Npart'
p125
S'200'
p126
sS'partProbe'
p127
S'0.049\t0.001\t0.03'
p128
sS'volt'
p129
S'3020'
p130
sS'shape'
p131
S'MPM'
p132
sS'tInt'
p133
S'quasiCG'
p134
sS'Jrows'
p135
S'8'
sS'voltage success'
p136
S'2989.8'
p137
sS'maxLoadIter'
p138
S'32'
p139
sS'fracDef'
p140
S'0.05'
p141
sS'cartRank_0'
p142
S'_____________________________'
p143
sS'Icols'
p144
S'28'
p145
sS'frameCount'
p146
S'8'
sS'rhoStart'
p147
S'0.018613182772791'
p148
sS'ignore'
p149
S'2.2250738585072e-308'
p150
sS'max part velocity'
p151
S'0'
sS'NewtTol'
p152
S'1e-06'
p153
sS'ppd'
p154
S'2\t2\t2'
p155
sS'ending Kiter'
p156
S'200'
p157
sS'minMass'
p158
S'9.498535291641e-23'
p159
sS'Klayers'
p160
S'4'
sS'total CG iterations'
p161
S'30447'
p162
sS'elapsedTime'
p163
S'0.875'
p164
sS'tol start'
p165
S'3.2775034864484e-08'
p166
sS'nonlinear load loop'
p167
S'7'
sS'np'
p168
S'1\t1\t1'
p169
sS'theta'
p170
S'1'
sS'voltage attempt'
p171
S'3020'
p172
sS'pmtv'
p173
S'8.854187817e-12'
p174
sS'linIter'
p175
S'200'
p176
sS'regionHi'
p177
S'0.1\t0.012\t0.12'
p178
sS'NewtLim'
p179
S'8'
sS'outer connectivity table size'
p180
S'0'
sS'estimated total wall time'
p181
S'12.422857142857 sec '
p182
sS'pois'
p183
S'0.31'
p184
sS'estimated wall time remaining'
p185
S'1.5528571428571 sec '
p186
sS'gap'
p187
S'0.00375'
p188
sS'nonlinear load loop tol prev'
p189
S'0.9852554178656'
p190
sS'incCount'
p191
S'7'
sS'cell sizes'
p192
S'0.004\t0.004\t0.12'
p193
sS'linTol'
p194
S'1e-08'
p195
sS'lastFac'
p196
S'0.01'
p197
sS'CFL'
p198
S'0.5'
p199
sS'current Kiter'
p200
S'0'
sS'inner connectivity table size'
p201
S'1600'
p202
sS'dens'
p203
S'0.008912'
p204
sS'finalGap'
p205
S'0.0025124488672553'
p206
sS'crash encountered with world rank'
p207
S'0'
sS'testName'
p208
S'pullin2D-geom-3020'
p209
sS'Nthick'
p210
S'1'
sS'timeStep'
p211
S'0.125'
p212
sS'tol prev'
p213
S'0.0084764384763048'
p214
sS'beamH'
p215
S'0.004'
p216
sS'mainDir'
p217
S'/data/code/gimp/545=543-mass2/0main'
p218
sS'beamL'
p219
S'0.1'
p220
sS'Ymod'
p221
S'158100'
p222
sS'beamB'
p223
S'0.12'
p224
sS'runDir'
p225
S'/data/code/gimp/545=543-mass2/pullin2D'
p226
sS'regionLo'
p227
S'0\t-0.008\t0'
p228
sS'Nstep'
p229
S'8'
sS'Newton step'
p230
S'2'
sS'wallTime'
p231
S'11.88'
p232
sa(dp233
S'finalTime'
p234
S'1'
sS'dtOveride'
p235
S'0.125'
p236
sS'nonlinear load loop tol start'
p237
S'7.6905564252542e-05'
p238
sS'Nnode'
p239
S'896'
p240
sS'Npart'
p241
S'200'
p242
sS'partProbe'
p243
S'0.049\t0.001\t0.03'
p244
sS'volt'
p245
S'3050'
p246
sS'shape'
p247
S'MPM'
p248
sS'tInt'
p249
S'quasiCG'
p250
sS'Jrows'
p251
S'8'
sS'voltage success'
p252
S'3050'
p253
sS'maxLoadIter'
p254
S'32'
p255
sS'fracDef'
p256
S'0.05'
p257
sS'cartRank_0'
p258
S'_____________________________'
p259
sS'Icols'
p260
S'28'
p261
sS'frameCount'
p262
S'9'
sS'rhoStart'
p263
S'0.00011437279650754'
p264
sS'ignore'
p265
S'2.2250738585072e-308'
p266
sS'max part velocity'
p267
S'0'
sS'NewtTol'
p268
S'1e-06'
p269
sS'ppd'
p270
S'2\t2\t2'
p271
sS'ending Kiter'
p272
S'200'
p273
sS'minMass'
p274
S'9.498535291641e-23'
p275
sS'Klayers'
p276
S'4'
sS'total CG iterations'
p277
S'24205'
p278
sS'elapsedTime'
p279
S'1'
sS'tol start'
p280
S'1.063592557104e-08'
p281
sS'nonlinear load loop'
p282
S'31'
p283
sS'np'
p284
S'1\t1\t1'
p285
sS'theta'
p286
S'1'
sS'voltage attempt'
p287
S'3050'
p288
sS'pmtv'
p289
S'8.854187817e-12'
p290
sS'linIter'
p291
S'200'
p292
sS'regionHi'
p293
S'0.1\t0.012\t0.12'
p294
sS'NewtLim'
p295
S'8'
sS'outer connectivity table size'
p296
S'0'
sS'estimated total wall time'
p297
S'11.69 sec '
p298
sS'pois'
p299
S'0.31'
p300
sS'estimated wall time remaining'
p301
S'   0 sec '
p302
sS'gap'
p303
S'0.00375'
p304
sS'nonlinear load loop tol prev'
p305
S'0.76920070460764'
p306
sS'incCount'
p307
S'8'
sS'cell sizes'
p308
S'0.004\t0.004\t0.12'
p309
sS'linTol'
p310
S'1e-08'
p311
sS'lastFac'
p312
S'0.1'
p313
sS'CFL'
p314
S'0.5'
p315
sS'current Kiter'
p316
S'0'
sS'inner connectivity table size'
p317
S'1600'
p318
sS'dens'
p319
S'0.008912'
p320
sS'finalGap'
p321
S'0.0024786522670262'
p322
sS'testName'
p323
S'pullin2D-lin-3050'
p324
sS'Nthick'
p325
S'1'
sS'timeStep'
p326
S'0.125'
p327
sS'tol prev'
p328
S'0.00013829851811651'
p329
sS'beamH'
p330
S'0.004'
p331
sS'mainDir'
p332
S'/data/code/gimp/545=543-mass2/0main'
p333
sS'beamL'
p334
S'0.1'
p335
sS'Ymod'
p336
S'158100'
p337
sS'beamB'
p338
S'0.12'
p339
sS'runDir'
p340
S'/data/code/gimp/545=543-mass2/pullin2D'
p341
sS'regionLo'
p342
S'0\t-0.008\t0'
p343
sS'Nstep'
p344
S'8'
sS'Newton step'
p345
S'1'
sS'wallTime'
p346
S'11.7'
p347
sa.