(lp1
(dp2
S'load'
p3
S'1e-05'
p4
sS'finalTime'
p5
S'0.0021959506451049'
p6
sS'tInt'
p7
S'NewtCG'
p8
sS'Nnode'
p9
S'2756'
p10
sS'Npart'
p11
S'1000'
p12
sS'partProbe'
p13
S'0.0495\t0.002\t0.03'
p14
sS'inner connectivity table size'
p15
S'8000'
p16
sS'shape'
p17
S'MPM'
p18
sS'dtOveride'
p19
S'3.6571074139554e-05'
p20
sS'Jrows'
p21
S'13'
p22
sS'iterLim'
p23
S'400'
p24
sS'gmTol'
p25
S'1e-08'
p26
sS'maxLoadIter'
p27
S'32'
p28
sS'natFreq'
p29
S'11457.98298681177'
p30
sS'Icols'
p31
S'53'
p32
sS'frameCount'
p33
S'0'
sS'rhoStart'
p34
S'5.3266376905363e-15'
p35
sS'ignore'
p36
S'2.2250738585072e-308'
p37
sS'max part velocity'
p38
S'7.8522592455314e-06'
p39
sS'decay'
p40
S'3.6196933756931706'
p41
sS'NewtTol'
p42
S'1e-06'
p43
sS'ppd'
p44
S'2\t2\t2'
p45
sS'ending Kiter'
p46
S'63'
p47
sS'Klayers'
p48
S'4'
sS'elapsedTime'
p49
S'0.0021959506451049'
p50
sS'CGslack'
p51
S'100'
p52
sS'L2norm'
p53
S'4.7117830898769e-06'
p54
sS'tol start'
p55
S'1.2592629648611e-08'
p56
sS'Nper'
p57
S'4.1803278688524594'
p58
sS'np'
p59
S'1\t1\t1'
p60
sS'theta'
p61
S'0.5'
p62
sS'Nwide'
p63
S'1'
sS'Nthick'
p64
S'2'
sS'actFreq'
p65
S'11457.982415062777'
p66
sS'NewtLim'
p67
S'8'
sS'outer connectivity table size'
p68
S'0'
sS'estimated total wall time'
p69
S'  11 sec '
p70
sS'pois'
p71
S'0.31'
p72
sS'estimated wall time remaining'
p73
S'   0 sec '
p74
sS'goodness-of-fit'
p75
S'0.9999983802271537'
p76
sS'incCount'
p77
S'61'
p78
sS'current Kiter'
p79
S'0'
sS'cell sizes'
p80
S'0.002\t0.0016\t0.12'
p81
sS'Linfnorm'
p82
S'7.9427091153795e-06'
p83
sS'phase'
p84
S'-8.5500438968723544e-05'
p85
sS'L1norm'
p86
S'3.8283804411002e-06'
p87
sS'regionHi'
p88
S'0.1\t0.008\t0.12'
p89
sS'EulerFreq'
p90
S'11445.039206479'
p91
sS'CFL'
p92
S'128'
p93
sS'Qfactor'
p94
S'1582.7283967965338'
p95
sS'amp'
p96
S'-7.9211012193733041e-06'
p97
sS'dens'
p98
S'0.008912'
p99
sS'timeStep'
p100
S'3.6571074139554e-05'
p101
sS'dampRatio'
p102
S'0.00031591017196128378'
p103
sS'testName'
p104
S'fixed-modes-dynCG'
p105
sS'tol prev'
p106
S'1.2592629648611e-08'
p107
sS'beamH'
p108
S'0.004'
p109
sS'mainDir'
p110
S'/data/code/gimp/422=421-fiddle/0main'
p111
sS'mode'
p112
S'1'
sS'beamL'
p113
S'0.1'
p114
sS'Ymod'
p115
S'158100'
p116
sS'beamB'
p117
S'0.12'
p118
sS'runDir'
p119
S'/data/code/gimp/422=421-fiddle/fixed-modes'
p120
sS'regionLo'
p121
S'0\t-0.008\t0'
p122
sS'Nstep'
p123
S'60.04610738873'
p124
sS'Newton step'
p125
S'1'
sS'wallTime'
p126
S'11.01'
p127
sa(dp128
S'load'
p129
S'1e-05'
p130
sS'Nstor'
p131
S'256'
p132
sS'finalTime'
p133
S'0.0021959506451049'
p134
sS'tInt'
p135
S'dynGM'
p136
sS'Nnode'
p137
S'896'
p138
sS'Npart'
p139
S'300'
p140
sS'partProbe'
p141
S'0.049\t0.002\t0.03'
p142
sS'inner connectivity table size'
p143
S'2400'
p144
sS'shape'
p145
S'MPM'
p146
sS'dtOveride'
p147
S'7.3142148279109e-05'
p148
sS'Jrows'
p149
S'8'
sS'L1norm'
p150
S'4.6368388137799e-06'
p151
sS'gmTol'
p152
S'1e-08'
p153
sS'maxLoadIter'
p154
S'32'
p155
sS'natFreq'
p156
S'11687.98554361244'
p157
sS'Icols'
p158
S'28'
p159
sS'frameCount'
p160
S'0'
sS'rhoStart'
p161
S'8.9991585373415e-07'
p162
sS'ignore'
p163
S'2.2250738585072e-308'
p164
sS'max part velocity'
p165
S'6.3169186967851e-06'
p166
sS'decay'
p167
S'33.369358029061786'
p168
sS'NewtTol'
p169
S'1e-06'
p170
sS'ppd'
p171
S'2\t2\t2'
p172
sS'ending Kiter'
p173
S'21'
p174
sS'Klayers'
p175
S'4'
sS'elapsedTime'
p176
S'0.0021959506451049'
p177
sS'L2norm'
p178
S'5.1407410255866e-06'
p179
sS'countBasis'
p180
S'218927'
p181
sS'Nper'
p182
S'4.112903225806452'
p183
sS'np'
p184
S'1\t1\t1'
p185
sS'tol start'
p186
S'4.851881020115e-09'
p187
sS'Nwide'
p188
S'1'
sS'Nthick'
p189
S'1'
sS'actFreq'
p190
S'11687.937908529379'
p191
sS'NewtLim'
p192
S'8'
sS'outer connectivity table size'
p193
S'0'
sS'estimated total wall time'
p194
S'3.15 sec '
p195
sS'pois'
p196
S'0.31'
p197
sS'estimated wall time remaining'
p198
S'   0 sec '
p199
sS'goodness-of-fit'
p200
S'0.99999699327062697'
p201
sS'incCount'
p202
S'31'
p203
sS'current Kiter'
p204
S'0'
sS'cell sizes'
p205
S'0.004\t0.0032\t0.12'
p206
sS'Linfnorm'
p207
S'7.9408636373815e-06'
p208
sS'theta'
p209
S'0.5'
p210
sS'phase'
p211
S'0.0022542895030330592'
p212
sS'amp'
p213
S'-7.9121182205226622e-06'
p214
sS'regionHi'
p215
S'0.1\t0.008\t0.12'
p216
sS'EulerFreq'
p217
S'11445.039206479'
p218
sS'CFL'
p219
S'128'
p220
sS'Qfactor'
p221
S'175.13051245147162'
p222
sS'dens'
p223
S'0.008912'
p224
sS'timeStep'
p225
S'7.3142148279109e-05'
p226
sS'dampRatio'
p227
S'0.0028550136295555531'
p228
sS'testName'
p229
S'fixed-modes-dynGM'
p230
sS'tol prev'
p231
S'4.851881020115e-09'
p232
sS'beamH'
p233
S'0.004'
p234
sS'mainDir'
p235
S'/data/code/gimp/422=421-fiddle/0main'
p236
sS'mode'
p237
S'1'
sS'beamL'
p238
S'0.1'
p239
sS'Ymod'
p240
S'158100'
p241
sS'beamB'
p242
S'0.12'
p243
sS'runDir'
p244
S'/data/code/gimp/422=421-fiddle/fixed-modes'
p245
sS'regionLo'
p246
S'0\t-0.008\t0'
p247
sS'Nstep'
p248
S'30.023053694365'
p249
sS'Newton step'
p250
S'1'
sS'wallTime'
p251
S'3.15'
p252
sa(dp253
S'load'
p254
S'1e-05'
p255
sS'finalTime'
p256
S'0.0021959506451049'
p257
sS'tInt'
p258
S'momentum'
p259
sS'Ymod'
p260
S'158100'
p261
sS'Nnode'
p262
S'896'
p263
sS'Npart'
p264
S'300'
p265
sS'partProbe'
p266
S'0.049\t0.002\t0.03'
p267
sS'inner connectivity table size'
p268
S'2400'
p269
sS'shape'
p270
S'MPM'
p271
sS'dtOveride'
p272
S'5.1428073008748e-07'
p273
sS'Jrows'
p274
S'8'
sS'L1norm'
p275
S'1.023679656047e-05'
p276
sS'natFreq'
p277
S'12433.468997835371'
p278
sS'Icols'
p279
S'28'
p280
sS'frameCount'
p281
S'42'
p282
sS'regionHi'
p283
S'0.1\t0.008\t0.12'
p284
sS'max part velocity'
p285
S'4.7630469527905e-06'
p286
sS'decay'
p287
S'-0.17736084789397627'
p288
sS'ppd'
p289
S'2\t2\t2'
p290
sS'Klayers'
p291
S'4'
sS'elapsedTime'
p292
S'0.0021959506451049'
p293
sS'L2norm'
p294
S'1.0355277930867e-05'
p295
sS'Nper'
p296
S'4.3467297556300908'
p297
sS'np'
p298
S'1\t1\t1'
p299
sS'Nwide'
p300
S'1'
sS'actFreq'
p301
S'12433.468996570364'
p302
sS'outer connectivity table size'
p303
S'0'
sS'estimated total wall time'
p304
S'2.42 sec '
p305
sS'pois'
p306
S'0.31'
p307
sS'estimated wall time remaining'
p308
S'   0 sec '
p309
sS'goodness-of-fit'
p310
S'0.99788037311755151'
p311
sS'incCount'
p312
S'4270'
p313
sS'cell sizes'
p314
S'0.004\t0.0032\t0.12'
p315
sS'Linfnorm'
p316
S'1.2696979996913e-05'
p317
sS'phase'
p318
S'-0.0033722401322403115'
p319
sS'amp'
p320
S'-7.8996143825370363e-06'
p321
sS'EulerFreq'
p322
S'11445.039206479'
p323
sS'CFL'
p324
S'0.9'
p325
sS'Qfactor'
p326
S'-35051.335019744372'
p327
sS'dens'
p328
S'0.008912'
p329
sS'timeStep'
p330
S'5.1428073008748e-07'
p331
sS'dampRatio'
p332
S'-1.426479190359941e-05'
p333
sS'testName'
p334
S'fixed-modes-typical'
p335
sS'beamH'
p336
S'0.004'
p337
sS'mainDir'
p338
S'/data/code/gimp/422=421-fiddle/0main'
p339
sS'mode'
p340
S'1'
sS'beamL'
p341
S'0.1'
p342
sS'Nthick'
p343
S'1'
sS'beamB'
p344
S'0.12'
p345
sS'runDir'
p346
S'/data/code/gimp/422=421-fiddle/fixed-modes'
p347
sS'regionLo'
p348
S'0\t-0.008\t0'
p349
sS'Nstep'
p350
S'4269.9454143097'
p351
sS'wallTime'
p352
S'2.43'
p353
sa(dp354
S'load'
p355
S'1e-05'
p356
sS'finalTime'
p357
S'0.0021959506451049'
p358
sS'tInt'
p359
S'momentum'
p360
sS'Ymod'
p361
S'158100'
p362
sS'Nnode'
p363
S'896'
p364
sS'Npart'
p365
S'300'
p366
sS'partProbe'
p367
S'0.049\t0.002\t0.03'
p368
sS'inner connectivity table size'
p369
S'2400'
p370
sS'shape'
p371
S'MPM'
p372
sS'dtOveride'
p373
S'1.1428460668611e-06'
p374
sS'Jrows'
p375
S'8'
sS'L1norm'
p376
S'1.0211883319329e-05'
p377
sS'natFreq'
p378
S'12433.505906194276'
p379
sS'Icols'
p380
S'28'
p381
sS'frameCount'
p382
S'19'
p383
sS'regionHi'
p384
S'0.1\t0.008\t0.12'
p385
sS'max part velocity'
p386
S'4.7130576046717e-06'
p387
sS'decay'
p388
S'-0.13438647378455193'
p389
sS'ppd'
p390
S'2\t2\t2'
p391
sS'Klayers'
p392
S'4'
sS'elapsedTime'
p393
S'0.0021959506451049'
p394
sS'L2norm'
p395
S'1.0328804261191e-05'
p396
sS'Nper'
p397
S'4.3519456289978677'
p398
sS'np'
p399
S'1\t1\t1'
p400
sS'Nwide'
p401
S'1'
sS'actFreq'
p402
S'12433.505905468024'
p403
sS'outer connectivity table size'
p404
S'0'
sS'estimated total wall time'
p405
S'1.18 sec '
p406
sS'pois'
p407
S'0.31'
p408
sS'estimated wall time remaining'
p409
S'   0 sec '
p410
sS'goodness-of-fit'
p411
S'0.99743417589869254'
p412
sS'incCount'
p413
S'1922'
p414
sS'cell sizes'
p415
S'0.004\t0.0032\t0.12'
p416
sS'Linfnorm'
p417
S'1.264695497592e-05'
p418
sS'phase'
p419
S'-0.0072445063491528841'
p420
sS'amp'
p421
S'-7.9000315314857817e-06'
p422
sS'EulerFreq'
p423
S'11445.039206479'
p424
sS'CFL'
p425
S'2'
sS'Qfactor'
p426
S'-46260.258030609701'
p427
sS'dens'
p428
S'0.008912'
p429
sS'timeStep'
p430
S'1.1428460668611e-06'
p431
sS'dampRatio'
p432
S'-1.080841355595461e-05'
p433
sS'testName'
p434
S'fixed-modes-MPM-mom'
p435
sS'beamH'
p436
S'0.004'
p437
sS'mainDir'
p438
S'/data/code/gimp/422=421-fiddle/0main'
p439
sS'mode'
p440
S'1'
sS'beamL'
p441
S'0.1'
p442
sS'Nthick'
p443
S'1'
sS'beamB'
p444
S'0.12'
p445
sS'runDir'
p446
S'/data/code/gimp/422=421-fiddle/fixed-modes'
p447
sS'regionLo'
p448
S'0\t-0.008\t0'
p449
sS'Nstep'
p450
S'1921.4754364394'
p451
sS'wallTime'
p452
S'1.19'
p453
sa(dp454
S'load'
p455
S'1e-05'
p456
sS'finalTime'
p457
S'0.0021959506451049'
p458
sS'tInt'
p459
S'CD'
p460
sS'Ymod'
p461
S'158100'
p462
sS'Nnode'
p463
S'896'
p464
sS'Npart'
p465
S'300'
p466
sS'partProbe'
p467
S'0.049\t0.002\t0.03'
p468
sS'inner connectivity table size'
p469
S'2400'
p470
sS'shape'
p471
S'MPM'
p472
sS'dtOveride'
p473
S'3.9999612340137e-07'
p474
sS'Jrows'
p475
S'8'
sS'L1norm'
p476
S'1.0229260982909e-05'
p477
sS'natFreq'
p478
S'12433.297969210478'
p479
sS'Icols'
p480
S'28'
p481
sS'frameCount'
p482
S'54'
p483
sS'regionHi'
p484
S'0.1\t0.008\t0.12'
p485
sS'max part velocity'
p486
S'4.4796762903486e-06'
p487
sS'decay'
p488
S'0.57746810638557988'
p489
sS'ppd'
p490
S'2\t2\t2'
p491
sS'Klayers'
p492
S'4'
sS'elapsedTime'
p493
S'0.0021959506451049'
p494
sS'L2norm'
p495
S'1.034880808965e-05'
p496
sS'Nper'
p497
S'4.3433718115807114'
p498
sS'np'
p499
S'1\t1\t1'
p500
sS'Nwide'
p501
S'1'
sS'actFreq'
p502
S'12433.297955800141'
p503
sS'outer connectivity table size'
p504
S'0'
sS'estimated total wall time'
p505
S'2.65 sec '
p506
sS'pois'
p507
S'0.31'
p508
sS'estimated wall time remaining'
p509
S'   0 sec '
p510
sS'goodness-of-fit'
p511
S'0.99994645094106949'
p512
sS'incCount'
p513
S'5490'
p514
sS'cell sizes'
p515
S'0.004\t0.0032\t0.12'
p516
sS'Linfnorm'
p517
S'1.2413609517101e-05'
p518
sS'phase'
p519
S'-0.0026512548558977737'
p520
sS'amp'
p521
S'-7.9000933843269578e-06'
p522
sS'EulerFreq'
p523
S'11445.039206479'
p524
sS'CFL'
p525
S'0.7'
p526
sS'Qfactor'
p527
S'10765.354685154394'
p528
sS'dens'
p529
S'0.008912'
p530
sS'timeStep'
p531
S'3.9999612340137e-07'
p532
sS'dampRatio'
p533
S'4.644528811387036e-05'
p534
sS'testName'
p535
S'fixed-modes-MPM-CD'
p536
sS'beamH'
p537
S'0.004'
p538
sS'mainDir'
p539
S'/data/code/gimp/422=421-fiddle/0main'
p540
sS'mode'
p541
S'1'
sS'beamL'
p542
S'0.1'
p543
sS'Nthick'
p544
S'1'
sS'beamB'
p545
S'0.12'
p546
sS'runDir'
p547
S'/data/code/gimp/422=421-fiddle/fixed-modes'
p548
sS'regionLo'
p549
S'0\t-0.008\t0'
p550
sS'Nstep'
p551
S'5489.9298183982'
p552
sS'wallTime'
p553
S'2.67'
p554
sa(dp555
S'load'
p556
S'1e-05'
p557
sS'finalTime'
p558
S'0.0021959506451049'
p559
sS'tInt'
p560
S'momentum'
p561
sS'Ymod'
p562
S'158100'
p563
sS'Nnode'
p564
S'896'
p565
sS'Npart'
p566
S'300'
p567
sS'partProbe'
p568
S'0.049\t0.002\t0.03'
p569
sS'inner connectivity table size'
p570
S'8100'
p571
sS'shape'
p572
S'GIMP'
p573
sS'dtOveride'
p574
S'1.1428460668611e-06'
p575
sS'Jrows'
p576
S'8'
sS'L1norm'
p577
S'8.9997026640984e-06'
p578
sS'natFreq'
p579
S'12279.701718725893'
p580
sS'Icols'
p581
S'28'
p582
sS'frameCount'
p583
S'19'
p584
sS'regionHi'
p585
S'0.1\t0.008\t0.12'
p586
sS'max part velocity'
p587
S'2.1599566219271e-06'
p588
sS'decay'
p589
S'0.095451551111282507'
p590
sS'ppd'
p591
S'2\t2\t2'
p592
sS'Klayers'
p593
S'4'
sS'elapsedTime'
p594
S'0.0021959506451049'
p595
sS'L2norm'
p596
S'9.0312673857059e-06'
p597
sS'Nper'
p598
S'4.2901996847083552'
p599
sS'np'
p600
S'1\t1\t1'
p601
sS'Nwide'
p602
S'1'
sS'actFreq'
p603
S'12279.701718354916'
p604
sS'outer connectivity table size'
p605
S'0'
sS'estimated total wall time'
p606
S' 2.6 sec '
p607
sS'pois'
p608
S'0.31'
p609
sS'estimated wall time remaining'
p610
S'   0 sec '
p611
sS'goodness-of-fit'
p612
S'0.99229111916230606'
p613
sS'incCount'
p614
S'1922'
p615
sS'cell sizes'
p616
S'0.004\t0.0032\t0.12'
p617
sS'Linfnorm'
p618
S'1.0093860068378e-05'
p619
sS'phase'
p620
S'-0.0069595390158631405'
p621
sS'amp'
p622
S'-7.9110002938861051e-06'
p623
sS'EulerFreq'
p624
S'11445.039206479'
p625
sS'CFL'
p626
S'2'
sS'Qfactor'
p627
S'64324.264905918404'
p628
sS'dens'
p629
S'0.008912'
p630
sS'timeStep'
p631
S'1.1428460668611e-06'
p632
sS'dampRatio'
p633
S'7.7731164239701332e-06'
p634
sS'testName'
p635
S'fixed-modes-GIMP-mom'
p636
sS'beamH'
p637
S'0.004'
p638
sS'mainDir'
p639
S'/data/code/gimp/422=421-fiddle/0main'
p640
sS'mode'
p641
S'1'
sS'beamL'
p642
S'0.1'
p643
sS'Nthick'
p644
S'1'
sS'beamB'
p645
S'0.12'
p646
sS'runDir'
p647
S'/data/code/gimp/422=421-fiddle/fixed-modes'
p648
sS'regionLo'
p649
S'0\t-0.008\t0'
p650
sS'Nstep'
p651
S'1921.4754364394'
p652
sS'wallTime'
p653
S'2.61'
p654
sa(dp655
S'load'
p656
S'1e-05'
p657
sS'finalTime'
p658
S'0.0021959506451049'
p659
sS'tInt'
p660
S'CD'
p661
sS'Ymod'
p662
S'158100'
p663
sS'Nnode'
p664
S'896'
p665
sS'Npart'
p666
S'300'
p667
sS'partProbe'
p668
S'0.049\t0.002\t0.03'
p669
sS'inner connectivity table size'
p670
S'8100'
p671
sS'shape'
p672
S'GIMP'
p673
sS'dtOveride'
p674
S'4.5713842674443e-07'
p675
sS'Jrows'
p676
S'8'
sS'L1norm'
p677
S'8.9951840834967e-06'
p678
sS'natFreq'
p679
S'12279.610434504393'
p680
sS'Icols'
p681
S'28'
p682
sS'frameCount'
p683
S'48'
p684
sS'regionHi'
p685
S'0.1\t0.008\t0.12'
p686
sS'max part velocity'
p687
S'2.0091125273278e-06'
p688
sS'decay'
p689
S'0.80992287004221253'
p690
sS'ppd'
p691
S'2\t2\t2'
p692
sS'Klayers'
p693
S'4'
sS'elapsedTime'
p694
S'0.0021959506451049'
p695
sS'L2norm'
p696
S'9.0225322517954e-06'
p697
sS'Nper'
p698
S'4.2901954602774275'
p699
sS'np'
p700
S'1\t1\t1'
p701
sS'Nwide'
p702
S'1'
sS'actFreq'
p703
S'12279.610407794466'
p704
sS'outer connectivity table size'
p705
S'0'
sS'estimated total wall time'
p706
S'5.38 sec '
p707
sS'pois'
p708
S'0.31'
p709
sS'estimated wall time remaining'
p710
S'   0 sec '
p711
sS'goodness-of-fit'
p712
S'0.99994185247186707'
p713
sS'incCount'
p714
S'4804'
p715
sS'cell sizes'
p716
S'0.004\t0.0032\t0.12'
p717
sS'Linfnorm'
p718
S'9.9430459102904e-06'
p719
sS'phase'
p720
S'-0.0029729180313291591'
p721
sS'amp'
p722
S'-7.910021035340779e-06'
p723
sS'EulerFreq'
p724
S'11445.039206479'
p725
sS'CFL'
p726
S'0.8'
p727
sS'Qfactor'
p728
S'7580.7282944512908'
p729
sS'dens'
p730
S'0.008912'
p731
sS'timeStep'
p732
S'4.5713842674443e-07'
p733
sS'dampRatio'
p734
S'6.595672349396491e-05'
p735
sS'testName'
p736
S'fixed-modes-GIMP-CD'
p737
sS'beamH'
p738
S'0.004'
p739
sS'mainDir'
p740
S'/data/code/gimp/422=421-fiddle/0main'
p741
sS'mode'
p742
S'1'
sS'beamL'
p743
S'0.1'
p744
sS'Nthick'
p745
S'1'
sS'beamB'
p746
S'0.12'
p747
sS'runDir'
p748
S'/data/code/gimp/422=421-fiddle/fixed-modes'
p749
sS'regionLo'
p750
S'0\t-0.008\t0'
p751
sS'Nstep'
p752
S'4803.6885910984'
p753
sS'wallTime'
p754
S'5.39'
p755
sa(dp756
S'load'
p757
S'1e-05'
p758
sS'finalTime'
p759
S'0.0021959506451049'
p760
sS'tInt'
p761
S'momentum'
p762
sS'Ymod'
p763
S'158100'
p764
sS'Nnode'
p765
S'896'
p766
sS'Npart'
p767
S'300'
p768
sS'partProbe'
p769
S'0.049\t0.002\t0.03'
p770
sS'inner connectivity table size'
p771
S'8100'
p772
sS'shape'
p773
S'spline'
p774
sS'dtOveride'
p775
S'1.1428460668611e-06'
p776
sS'Jrows'
p777
S'8'
sS'L1norm'
p778
S'1.125043886527e-05'
p779
sS'natFreq'
p780
S'10301.336231550178'
p781
sS'Icols'
p782
S'28'
p783
sS'frameCount'
p784
S'19'
p785
sS'regionHi'
p786
S'0.1\t0.008\t0.12'
p787
sS'max part velocity'
p788
S'6.6549185718426e-06'
p789
sS'decay'
p790
S'0.095364014643784592'
p791
sS'ppd'
p792
S'2\t2\t2'
p793
sS'Klayers'
p794
S'4'
sS'elapsedTime'
p795
S'0.0021959506451049'
p796
sS'L2norm'
p797
S'1.147489945315e-05'
p798
sS'Nper'
p799
S'3.7480489073881373'
p800
sS'np'
p801
S'1\t1\t1'
p802
sS'Nwide'
p803
S'1'
sS'actFreq'
p804
S'10301.336231108764'
p805
sS'outer connectivity table size'
p806
S'0'
sS'estimated total wall time'
p807
S'2.68 sec '
p808
sS'pois'
p809
S'0.31'
p810
sS'estimated wall time remaining'
p811
S'   0 sec '
p812
sS'goodness-of-fit'
p813
S'0.99778107452113329'
p814
sS'incCount'
p815
S'1922'
p816
sS'cell sizes'
p817
S'0.004\t0.0032\t0.12'
p818
sS'Linfnorm'
p819
S'1.4588851847423e-05'
p820
sS'phase'
p821
S'-0.0059053273070724614'
p822
sS'amp'
p823
S'-7.8745538435940212e-06'
p824
sS'EulerFreq'
p825
S'11445.039206479'
p826
sS'CFL'
p827
S'2'
sS'Qfactor'
p828
S'54010.604891315648'
p829
sS'dens'
p830
S'0.008912'
p831
sS'timeStep'
p832
S'1.1428460668611e-06'
p833
sS'dampRatio'
p834
S'9.2574412192964516e-06'
p835
sS'testName'
p836
S'fixed-modes-spline-mom'
p837
sS'beamH'
p838
S'0.004'
p839
sS'mainDir'
p840
S'/data/code/gimp/422=421-fiddle/0main'
p841
sS'mode'
p842
S'1'
sS'beamL'
p843
S'0.1'
p844
sS'Nthick'
p845
S'1'
sS'beamB'
p846
S'0.12'
p847
sS'runDir'
p848
S'/data/code/gimp/422=421-fiddle/fixed-modes'
p849
sS'regionLo'
p850
S'0\t-0.008\t0'
p851
sS'Nstep'
p852
S'1921.4754364394'
p853
sS'wallTime'
p854
S'2.69'
p855
sa(dp856
S'load'
p857
S'1e-05'
p858
sS'finalTime'
p859
S'0.0021959506451049'
p860
sS'tInt'
p861
S'CD'
p862
sS'Ymod'
p863
S'158100'
p864
sS'Nnode'
p865
S'896'
p866
sS'Npart'
p867
S'300'
p868
sS'partProbe'
p869
S'0.049\t0.002\t0.03'
p870
sS'inner connectivity table size'
p871
S'8100'
p872
sS'shape'
p873
S'spline'
p874
sS'dtOveride'
p875
S'4.5713842674443e-07'
p876
sS'Jrows'
p877
S'8'
sS'L1norm'
p878
S'1.1769729068049e-05'
p879
sS'natFreq'
p880
S'10083.265232186777'
p881
sS'Icols'
p882
S'28'
p883
sS'frameCount'
p884
S'48'
p885
sS'regionHi'
p886
S'0.1\t0.008\t0.12'
p887
sS'max part velocity'
p888
S'7.3094267924305e-06'
p889
sS'decay'
p890
S'27.472921222427459'
p891
sS'ppd'
p892
S'2\t2\t2'
p893
sS'Klayers'
p894
S'4'
sS'elapsedTime'
p895
S'0.0021959506451049'
p896
sS'L2norm'
p897
S'1.2035181851043e-05'
p898
sS'Nper'
p899
S'3.7492194004995838'
p900
sS'np'
p901
S'1\t1\t1'
p902
sS'Nwide'
p903
S'1'
sS'actFreq'
p904
S'10083.227805679398'
p905
sS'outer connectivity table size'
p906
S'0'
sS'estimated total wall time'
p907
S'6.22 sec '
p908
sS'pois'
p909
S'0.31'
p910
sS'estimated wall time remaining'
p911
S'   0 sec '
p912
sS'goodness-of-fit'
p913
S'0.9999977877978975'
p914
sS'incCount'
p915
S'4804'
p916
sS'cell sizes'
p917
S'0.004\t0.0032\t0.12'
p918
sS'Linfnorm'
p919
S'1.5243299913717e-05'
p920
sS'phase'
p921
S'-0.001997552138942107'
p922
sS'amp'
p923
S'-7.8550914232167721e-06'
p924
sS'EulerFreq'
p925
S'11445.039206479'
p926
sS'CFL'
p927
S'0.8'
p928
sS'Qfactor'
p929
S'183.51279702930398'
p930
sS'dens'
p931
S'0.008912'
p932
sS'timeStep'
p933
S'4.5713842674443e-07'
p934
sS'dampRatio'
p935
S'0.0027246056302011362'
p936
sS'testName'
p937
S'fixed-modes-spline-CD'
p938
sS'beamH'
p939
S'0.004'
p940
sS'mainDir'
p941
S'/data/code/gimp/422=421-fiddle/0main'
p942
sS'mode'
p943
S'1'
sS'beamL'
p944
S'0.1'
p945
sS'Nthick'
p946
S'1'
sS'beamB'
p947
S'0.12'
p948
sS'runDir'
p949
S'/data/code/gimp/422=421-fiddle/fixed-modes'
p950
sS'regionLo'
p951
S'0\t-0.008\t0'
p952
sS'Nstep'
p953
S'4803.6885910984'
p954
sS'wallTime'
p955
S'6.23'
p956
sa.